target datalayout = "e-m:e-p270:32:32-p271:32:32-p272:64:64-i64:64-i128:128-f80:128-n8:16:32:64-S128"
target triple = "x86_64-pc-linux-gnu"

%struct.ec_key_st = type { ptr, ptr, i32, ptr, ptr, ptr, i32, i32, %struct.CRYPTO_REF_COUNT, i32, %struct.crypto_ex_data_st, ptr, ptr, i64 }
%struct.CRYPTO_REF_COUNT = type { i32 }
%struct.crypto_ex_data_st = type { ptr, ptr }

@.str.2 = private unnamed_addr constant [31 x i8] c"../openssl/crypto/ec/ec_asn1.c\00", align 1
@__func__.d2i_ECParameters = private unnamed_addr constant [17 x i8] c"d2i_ECParameters\00", align 1

; Function Attrs: nounwind uwtable
define ptr @d2i_ECParameters(ptr noundef %0, ptr noundef %1, i64 noundef %2) #0 {
  %4 = alloca ptr, align 8
  %5 = alloca ptr, align 8
  %6 = alloca ptr, align 8
  %7 = alloca i64, align 8
  %8 = alloca ptr, align 8
  %9 = alloca i32, align 4
  store ptr %0, ptr %5, align 8, !tbaa !79
  store ptr %1, ptr %6, align 8, !tbaa !14
  store i64 %2, ptr %7, align 8, !tbaa !16
  call void @llvm.lifetime.start.p0(i64 8, ptr %8) #4
  %10 = load ptr, ptr %6, align 8, !tbaa !14
  %11 = icmp eq ptr %10, null
  br i1 %11, label %16, label %12

12:                                               ; preds = %3
  %13 = load ptr, ptr %6, align 8, !tbaa !14
  %14 = load ptr, ptr %13, align 8, !tbaa !26
  %15 = icmp eq ptr %14, null
  br i1 %15, label %16, label %17

16:                                               ; preds = %12, %3
  call void @ERR_new()
  call void @ERR_set_debug(ptr noundef @.str.2, i32 noundef 1102, ptr noundef @__func__.d2i_ECParameters)
  call void (i32, i32, ptr, ...) @ERR_set_error(i32 noundef 16, i32 noundef 786690, ptr noundef null)
  store ptr null, ptr %4, align 8
  store i32 1, ptr %9, align 4
  br label %75

17:                                               ; preds = %12
  %18 = load ptr, ptr %5, align 8, !tbaa !79
  %19 = icmp eq ptr %18, null
  br i1 %19, label %24, label %20

20:                                               ; preds = %17
  %21 = load ptr, ptr %5, align 8, !tbaa !79
  %22 = load ptr, ptr %21, align 8, !tbaa !81
  %23 = icmp eq ptr %22, null
  br i1 %23, label %24, label %29

24:                                               ; preds = %20, %17
  %25 = call ptr @EC_KEY_new()
  store ptr %25, ptr %8, align 8, !tbaa !81
  %26 = icmp eq ptr %25, null
  br i1 %26, label %27, label %28

27:                                               ; preds = %24
  call void @ERR_new()
  call void @ERR_set_debug(ptr noundef @.str.2, i32 noundef 1108, ptr noundef @__func__.d2i_ECParameters)
  call void (i32, i32, ptr, ...) @ERR_set_error(i32 noundef 16, i32 noundef 524304, ptr noundef null)
  store ptr null, ptr %4, align 8
  store i32 1, ptr %9, align 4
  br label %75

28:                                               ; preds = %24
  br label %32

29:                                               ; preds = %20
  %30 = load ptr, ptr %5, align 8, !tbaa !79
  %31 = load ptr, ptr %30, align 8, !tbaa !81
  store ptr %31, ptr %8, align 8, !tbaa !81
  br label %32

32:                                               ; preds = %29, %28
  %33 = load ptr, ptr %8, align 8, !tbaa !81
  %34 = getelementptr inbounds nuw %struct.ec_key_st, ptr %33, i32 0, i32 3
  %35 = load ptr, ptr %6, align 8, !tbaa !14
  %36 = load i64, ptr %7, align 8, !tbaa !16
  %37 = call ptr @d2i_ECPKParameters(ptr noundef %34, ptr noundef %35, i64 noundef %36)
  %38 = icmp ne ptr %37, null
  br i1 %38, label %55, label %39

39:                                               ; preds = %32
  %40 = load ptr, ptr %5, align 8, !tbaa !79
  %41 = icmp eq ptr %40, null
  br i1 %41, label %47, label %42

42:                                               ; preds = %39
  %43 = load ptr, ptr %5, align 8, !tbaa !79
  %44 = load ptr, ptr %43, align 8, !tbaa !81
  %45 = load ptr, ptr %8, align 8, !tbaa !81
  %46 = icmp ne ptr %44, %45
  br i1 %46, label %47, label %49

47:                                               ; preds = %42, %39
  %48 = load ptr, ptr %8, align 8, !tbaa !81
  call void @EC_KEY_free(ptr noundef %48)
  br label %54

49:                                               ; preds = %42
  %50 = load ptr, ptr %8, align 8, !tbaa !81
  %51 = getelementptr inbounds nuw %struct.ec_key_st, ptr %50, i32 0, i32 13
  %52 = load i64, ptr %51, align 8, !tbaa !101
  %53 = add i64 %52, 1
  store i64 %53, ptr %51, align 8, !tbaa !101
  br label %54

54:                                               ; preds = %49, %47
  store ptr null, ptr %4, align 8
  store i32 1, ptr %9, align 4
  br label %75

55:                                               ; preds = %32
  %56 = load ptr, ptr %8, align 8, !tbaa !81
  %57 = getelementptr inbounds nuw %struct.ec_key_st, ptr %56, i32 0, i32 3
  %58 = load ptr, ptr %57, align 8, !tbaa !85
  %59 = call i32 @EC_GROUP_get_curve_name(ptr noundef %58)
  %60 = icmp eq i32 %59, 1172
  br i1 %60, label %61, label %63

61:                                               ; preds = %55
  %62 = load ptr, ptr %8, align 8, !tbaa !81
  call void @EC_KEY_set_flags(ptr noundef %62, i32 noundef 4)
  br label %63

63:                                               ; preds = %61, %55
  %64 = load ptr, ptr %8, align 8, !tbaa !81
  %65 = getelementptr inbounds nuw %struct.ec_key_st, ptr %64, i32 0, i32 13
  %66 = load i64, ptr %65, align 8, !tbaa !101
  %67 = add i64 %66, 1
  store i64 %67, ptr %65, align 8, !tbaa !101
  %68 = load ptr, ptr %5, align 8, !tbaa !79
  %69 = icmp ne ptr %68, null
  br i1 %69, label %70, label %73

70:                                               ; preds = %63
  %71 = load ptr, ptr %8, align 8, !tbaa !81
  %72 = load ptr, ptr %5, align 8, !tbaa !79
  store ptr %71, ptr %72, align 8, !tbaa !81
  br label %73

73:                                               ; preds = %70, %63
  %74 = load ptr, ptr %8, align 8, !tbaa !81
  store ptr %74, ptr %4, align 8
  store i32 1, ptr %9, align 4
  br label %75

75:                                               ; preds = %73, %54, %27, %16
  call void @llvm.lifetime.end.p0(i64 8, ptr %8) #4
  %76 = load ptr, ptr %4, align 8
  ret ptr %76
}