; Function Attrs: nounwind uwtable
define ptr @d2i_ECParameters(ptr noundef captures(address_is_null) %0, ptr noundef captures(address_is_null) %1, i64 noundef %2) local_unnamed_addr #0 {
  %4 = icmp eq ptr %1, null
  br i1 %4, label %8, label %5

5:                                                ; preds = %3
  %6 = load ptr, ptr %1, align 8, !tbaa !3
  %7 = icmp eq ptr %6, null
  br i1 %7, label %8, label %9

8:                                                ; preds = %5, %3
  tail call void @ERR_new() #8
  tail call void @ERR_set_debug(ptr noundef nonnull @.str.2, i32 noundef 1102, ptr noundef nonnull @__func__.d2i_ECParameters) #8
  tail call void (i32, i32, ptr, ...) @ERR_set_error(i32 noundef 16, i32 noundef 786690, ptr noundef null) #8
  br label %41

9:                                                ; preds = %5
  %10 = icmp eq ptr %0, null
  br i1 %10, label %14, label %11

11:                                               ; preds = %9
  %12 = load ptr, ptr %0, align 8, !tbaa !52
  %13 = icmp eq ptr %12, null
  br i1 %13, label %14, label %.thread

14:                                               ; preds = %11, %9
  %15 = tail call ptr @EC_KEY_new() #8
  %16 = icmp eq ptr %15, null
  br i1 %16, label %17, label %18

17:                                               ; preds = %14
  tail call void @ERR_new() #8
  tail call void @ERR_set_debug(ptr noundef nonnull @.str.2, i32 noundef 1108, ptr noundef nonnull @__func__.d2i_ECParameters) #8
  tail call void (i32, i32, ptr, ...) @ERR_set_error(i32 noundef 16, i32 noundef 524304, ptr noundef null) #8
  br label %41

18:                                               ; preds = %14
  %19 = getelementptr inbounds nuw i8, ptr %15, i64 24
  %20 = tail call ptr @d2i_ECPKParameters(ptr noundef nonnull %19, ptr noundef nonnull %1, i64 noundef %2)
  %.not = icmp eq ptr %20, null
  br i1 %.not, label %23, label %30

.thread:                                          ; preds = %11
  %21 = getelementptr inbounds nuw i8, ptr %12, i64 24
  %22 = tail call ptr @d2i_ECPKParameters(ptr noundef nonnull %21, ptr noundef nonnull %1, i64 noundef %2)
  %.not28 = icmp eq ptr %22, null
  br i1 %.not28, label %.thread31, label %30

23:                                               ; preds = %18
  br i1 %10, label %25, label %.thread31

.thread31:                                        ; preds = %.thread, %23
  %.03033 = phi ptr [ %15, %23 ], [ %12, %.thread ]
  %24 = load ptr, ptr %0, align 8, !tbaa !52
  %.not25 = icmp eq ptr %24, %.03033
  br i1 %.not25, label %26, label %25

25:                                               ; preds = %.thread31, %23
  %.03034 = phi ptr [ %.03033, %.thread31 ], [ %15, %23 ]
  tail call void @EC_KEY_free(ptr noundef nonnull %.03034) #8
  br label %41

26:                                               ; preds = %.thread31
  %27 = getelementptr inbounds nuw i8, ptr %.03033, i64 96
  %28 = load i64, ptr %27, align 8, !tbaa !73
  %29 = add i64 %28, 1
  store i64 %29, ptr %27, align 8, !tbaa !73
  br label %41

30:                                               ; preds = %.thread, %18
  %31 = phi ptr [ %21, %.thread ], [ %19, %18 ]
  %.029 = phi ptr [ %12, %.thread ], [ %15, %18 ]
  %32 = load ptr, ptr %31, align 8, !tbaa !57
  %33 = tail call i32 @EC_GROUP_get_curve_name(ptr noundef %32) #8
  %34 = icmp eq i32 %33, 1172
  br i1 %34, label %35, label %36

35:                                               ; preds = %30
  tail call void @EC_KEY_set_flags(ptr noundef nonnull %.029, i32 noundef 4) #8
  br label %36

36:                                               ; preds = %35, %30
  %37 = getelementptr inbounds nuw i8, ptr %.029, i64 96
  %38 = load i64, ptr %37, align 8, !tbaa !73
  %39 = add i64 %38, 1
  store i64 %39, ptr %37, align 8, !tbaa !73
  br i1 %10, label %41, label %40

40:                                               ; preds = %36
  store ptr %.029, ptr %0, align 8, !tbaa !52
  br label %41

41:                                               ; preds = %36, %40, %25, %26, %17, %8
  %.020 = phi ptr [ null, %8 ], [ null, %17 ], [ null, %26 ], [ null, %25 ], [ %.029, %40 ], [ %.029, %36 ]
  ret ptr %.020
}